; Function Attrs: mustprogress uwtable
define void @_ZN32pxrInternal_v0_24__pxrReserved__20TfStringToLowerAsciiERKNSt7__cxx1112basic_stringIcSt11char_traitsIcESaIcEEE(ptr dead_on_unwind noalias nonnull writable sret(%"class.std::__cxx11::basic_string") align 8 %0, ptr noundef nonnull align 8 dereferenceable(32) %1) local_unnamed_addr #0 personality ptr @__gxx_personality_v0 {
  tail call void @_ZNSt7__cxx1112basic_stringIcSt11char_traitsIcESaIcEEC1Ev(ptr noundef nonnull align 8 dereferenceable(32) %0) #22
  %3 = tail call noundef i64 @_ZNKSt7__cxx1112basic_stringIcSt11char_traitsIcESaIcEE4sizeEv(ptr noundef nonnull align 8 dereferenceable(32) %1) #22
  invoke void @_ZNSt7__cxx1112basic_stringIcSt11char_traitsIcESaIcEE6resizeEm(ptr noundef nonnull align 8 dereferenceable(32) %0, i64 noundef %3)
          to label %4 unwind label %14

4:                                                ; preds = %2
  %5 = tail call ptr @_ZNKSt7__cxx1112basic_stringIcSt11char_traitsIcESaIcEE5beginEv(ptr noundef nonnull align 8 dereferenceable(32) %1) #22
  %6 = tail call ptr @_ZNKSt7__cxx1112basic_stringIcSt11char_traitsIcESaIcEE3endEv(ptr noundef nonnull align 8 dereferenceable(32) %1) #22
  %7 = tail call ptr @_ZNSt7__cxx1112basic_stringIcSt11char_traitsIcESaIcEE5beginEv(ptr noundef nonnull align 8 dereferenceable(32) %0) #22
  %.not6.i = icmp eq ptr %5, %6
  br i1 %.not6.i, label %"_ZSt9transformIN9__gnu_cxx17__normal_iteratorIPKcNSt7__cxx1112basic_stringIcSt11char_traitsIcESaIcEEEEENS1_IPcS9_EEZN32pxrInternal_v0_24__pxrReserved__20TfStringToLowerAsciiERKS9_E3$_0ET0_T_SI_SH_T1_.exit", label %.lr.ph.i

.lr.ph.i:                                         ; preds = %4, %.lr.ph.i
  %.sroa.0.08.i = phi ptr [ %13, %.lr.ph.i ], [ %7, %4 ]
  %.sroa.03.07.i = phi ptr [ %12, %.lr.ph.i ], [ %5, %4 ]
  %8 = load i8, ptr %.sroa.03.07.i, align 1
  %9 = add i8 %8, -65
  %or.cond.i.i = icmp ult i8 %9, 26
  %10 = add i8 %8, 32
  %11 = select i1 %or.cond.i.i, i8 %10, i8 %8
  store i8 %11, ptr %.sroa.0.08.i, align 1
  %12 = getelementptr inbounds i8, ptr %.sroa.03.07.i, i64 1
  %13 = getelementptr inbounds i8, ptr %.sroa.0.08.i, i64 1
  %.not.i = icmp eq ptr %12, %6
  br i1 %.not.i, label %"_ZSt9transformIN9__gnu_cxx17__normal_iteratorIPKcNSt7__cxx1112basic_stringIcSt11char_traitsIcESaIcEEEEENS1_IPcS9_EEZN32pxrInternal_v0_24__pxrReserved__20TfStringToLowerAsciiERKS9_E3$_0ET0_T_SI_SH_T1_.exit", label %.lr.ph.i, !llvm.loop !54

14:                                               ; preds = %2
  %15 = landingpad { ptr, i32 }
          cleanup
  tail call void @_ZNSt7__cxx1112basic_stringIcSt11char_traitsIcESaIcEED1Ev(ptr noundef nonnull align 8 dereferenceable(32) %0) #22
  resume { ptr, i32 } %15

"_ZSt9transformIN9__gnu_cxx17__normal_iteratorIPKcNSt7__cxx1112basic_stringIcSt11char_traitsIcESaIcEEEEENS1_IPcS9_EEZN32pxrInternal_v0_24__pxrReserved__20TfStringToLowerAsciiERKS9_E3$_0ET0_T_SI_SH_T1_.exit": ; preds = %.lr.ph.i, %4
  ret void
}